; Function Attrs: nounwind uwtable
define ptr @l_Lean_Elab_Tactic_evalDSimpTrace___lambda__3___boxed(ptr noundef %0, ptr noundef %1, ptr noundef %2, ptr noundef %3, ptr noundef %4, ptr noundef %5, ptr noundef %6, ptr noundef %7, ptr noundef %8, ptr noundef %9, ptr noundef %10, ptr noundef %11, ptr noundef %12, ptr noundef %13, ptr noundef %14) local_unnamed_addr #0 {
  %16 = tail call ptr @l_Lean_Elab_Tactic_evalDSimpTrace___lambda__3(ptr noundef %0, ptr noundef %1, ptr noundef %2, ptr noundef %3, ptr poison, ptr noundef %5, ptr noundef %6, ptr noundef %7, ptr noundef %8, ptr noundef %9, ptr noundef %10, ptr noundef %11, ptr noundef %12, ptr noundef %13, ptr noundef %14)
  %17 = ptrtoint ptr %5 to i64
  %18 = and i64 %17, 1
  %.not = icmp eq i64 %18, 0
  br i1 %.not, label %19, label %lean_dec.exit22

19:                                               ; preds = %15
  %20 = load i32, ptr %5, align 4, !tbaa !4
  %21 = icmp sgt i32 %20, 1
  br i1 %21, label %22, label %24, !prof !11

22:                                               ; preds = %19
  %23 = add nsw i32 %20, -1
  store i32 %23, ptr %5, align 4, !tbaa !4
  br label %lean_dec.exit22

24:                                               ; preds = %19
  %.not.i = icmp eq i32 %20, 0
  br i1 %.not.i, label %lean_dec.exit22, label %25

25:                                               ; preds = %24
  tail call void @lean_dec_ref_cold(ptr noundef nonnull %5) #5
  br label %lean_dec.exit22

lean_dec.exit22:                                  ; preds = %25, %24, %22, %15
  %26 = ptrtoint ptr %4 to i64
  %27 = and i64 %26, 1
  %.not29 = icmp eq i64 %27, 0
  br i1 %.not29, label %28, label %lean_dec.exit21

28:                                               ; preds = %lean_dec.exit22
  %29 = load i32, ptr %4, align 4, !tbaa !4
  %30 = icmp sgt i32 %29, 1
  br i1 %30, label %31, label %33, !prof !11

31:                                               ; preds = %28
  %32 = add nsw i32 %29, -1
  store i32 %32, ptr %4, align 4, !tbaa !4
  br label %lean_dec.exit21

33:                                               ; preds = %28
  %.not.i23 = icmp eq i32 %29, 0
  br i1 %.not.i23, label %lean_dec.exit21, label %34

34:                                               ; preds = %33
  tail call void @lean_dec_ref_cold(ptr noundef nonnull %4) #5
  br label %lean_dec.exit21

lean_dec.exit21:                                  ; preds = %34, %33, %31, %lean_dec.exit22
  %35 = ptrtoint ptr %2 to i64
  %36 = and i64 %35, 1
  %.not30 = icmp eq i64 %36, 0
  br i1 %.not30, label %37, label %lean_dec.exit20

37:                                               ; preds = %lean_dec.exit21
  %38 = load i32, ptr %2, align 4, !tbaa !4
  %39 = icmp sgt i32 %38, 1
  br i1 %39, label %40, label %42, !prof !11

40:                                               ; preds = %37
  %41 = add nsw i32 %38, -1
  store i32 %41, ptr %2, align 4, !tbaa !4
  br label %lean_dec.exit20

42:                                               ; preds = %37
  %.not.i25 = icmp eq i32 %38, 0
  br i1 %.not.i25, label %lean_dec.exit20, label %43

43:                                               ; preds = %42
  tail call void @lean_dec_ref_cold(ptr noundef nonnull %2) #5
  br label %lean_dec.exit20

lean_dec.exit20:                                  ; preds = %43, %42, %40, %lean_dec.exit21
  %44 = ptrtoint ptr %0 to i64
  %45 = and i64 %44, 1
  %.not31 = icmp eq i64 %45, 0
  br i1 %.not31, label %46, label %lean_dec.exit

46:                                               ; preds = %lean_dec.exit20
  %47 = load i32, ptr %0, align 4, !tbaa !4
  %48 = icmp sgt i32 %47, 1
  br i1 %48, label %49, label %51, !prof !11

49:                                               ; preds = %46
  %50 = add nsw i32 %47, -1
  store i32 %50, ptr %0, align 4, !tbaa !4
  br label %lean_dec.exit

51:                                               ; preds = %46
  %.not.i27 = icmp eq i32 %47, 0
  br i1 %.not.i27, label %lean_dec.exit, label %52

52:                                               ; preds = %51
  tail call void @lean_dec_ref_cold(ptr noundef nonnull %0) #5
  br label %lean_dec.exit

lean_dec.exit:                                    ; preds = %52, %51, %49, %lean_dec.exit20
  ret ptr %16
}